; Function Attrs: null_pointer_is_valid sspstrong uwtable
define internal void @k12_close(ptr noundef captures(none) %0) #0 {
  %2 = getelementptr inbounds nuw i8, ptr %0, i64 96
  %3 = load ptr, ptr %2, align 8
  %4 = getelementptr inbounds nuw i8, ptr %3, i64 8
  %5 = load ptr, ptr %4, align 8
  tail call void @g_hash_table_destroy(ptr noundef %5)
  %6 = getelementptr inbounds nuw i8, ptr %3, i64 16
  %7 = load ptr, ptr %6, align 8
  %8 = tail call i32 @g_hash_table_foreach_remove(ptr noundef %7, ptr noundef nonnull @destroy_srcdsc, ptr noundef null)
  %9 = load ptr, ptr %6, align 8
  tail call void @g_hash_table_destroy(ptr noundef %9)
  %10 = getelementptr inbounds nuw i8, ptr %3, i64 56
  tail call void @ws_buffer_free(ptr noundef nonnull %10)
  %11 = getelementptr inbounds nuw i8, ptr %3, i64 24
  %12 = load ptr, ptr %11, align 8
  tail call void @g_free(ptr noundef %12)
  %13 = getelementptr inbounds nuw i8, ptr %3, i64 40
  %14 = load ptr, ptr %13, align 8
  tail call void @g_free(ptr noundef %14)
  tail call void @g_free(ptr noundef %3)
  store ptr null, ptr %2, align 8
  ret void
}